(dp0
V1307
p1
(dp2
Vsku
p3
g1
sVdespachado
p4
I00
sVdisponible
p5
V2019-05-03T00:22:41.248Z
p6
sVcantidad
p7
I22
sS'sku_destino'
p8
S'1307'
p9
sVcreated_at
p10
V2019-05-02T23:55:08.854Z
p11
sVupdated_at
p12
V2019-05-02T23:55:08.854Z
p13
sV__v
p14
I0
sVgrupo
p15
I3
sV_id
p16
V5ccb835cfe11d90004025980
p17
ss.